	.file	"main.c"
	.text
.Ltext0:
	.cfi_sections	.debug_frame
	.def	__main;	.scl	2;	.type	32;	.endef
	.section .rdata,"dr"
.LC0:
	.ascii "\0"
	.align 8
.LC1:
	.ascii "Entre com a marca\347\343o inicial do cronometro em horas\0"
	.align 8
.LC2:
	.ascii "minutos e segundos <h> <min> <seg>:\0"
.LC3:
	.ascii "%d %d %d\0"
	.align 8
.LC4:
	.ascii "Entre com a marca\347\343o final do cronometro em horas\0"
	.align 8
.LC5:
	.ascii "Tempo transcorrido: %02d:%02d:%02d\0"
	.text
	.globl	main
	.def	main;	.scl	2;	.type	32;	.endef
	.seh_proc	main
main:
.LFB13:
	.file 1 "D:/Users/Marco/Documents/2022_2/codeblocks/PROVAEXEMPLOQ1/main.c"
	.loc 1 12 1
	.cfi_startproc
	pushq	%rbp
	.seh_pushreg	%rbp
	.cfi_def_cfa_offset 16
	.cfi_offset 6, -16
	movq	%rsp, %rbp
	.seh_setframe	%rbp, 0
	.cfi_def_cfa_register 6
	subq	$80, %rsp
	.seh_stackalloc	80
	.seh_endprologue
	.loc 1 12 1
	call	__main
.LVL0:
	.loc 1 14 5
	leaq	.LC0(%rip), %rdx
	movl	$2, %ecx
	call	setlocale
	.loc 1 15 5
	leaq	.LC1(%rip), %rcx
	call	puts
	.loc 1 16 5
	leaq	.LC2(%rip), %rcx
	call	puts
	.loc 1 17 5
	leaq	-12(%rbp), %rax
	leaq	8(%rax), %rcx
	leaq	-12(%rbp), %rax
	leaq	4(%rax), %rdx
	leaq	-12(%rbp), %rax
	movq	%rcx, %r9
	movq	%rdx, %r8
	movq	%rax, %rdx
	leaq	.LC3(%rip), %rcx
	call	scanf
	.loc 1 18 5
	leaq	.LC4(%rip), %rcx
	call	puts
	.loc 1 19 5
	leaq	.LC2(%rip), %rcx
	call	puts
	.loc 1 20 5
	leaq	-24(%rbp), %rax
	leaq	8(%rax), %rcx
	leaq	-24(%rbp), %rax
	leaq	4(%rax), %rdx
	leaq	-24(%rbp), %rax
	movq	%rcx, %r9
	movq	%rdx, %r8
	movq	%rax, %rdx
	leaq	.LC3(%rip), %rcx
	call	scanf
	.loc 1 21 5
	leaq	-36(%rbp), %rcx
	leaq	-24(%rbp), %rdx
	leaq	-12(%rbp), %rax
	movq	%rcx, %r8
	movq	%rax, %rcx
	call	Elapsed_time
	.loc 1 22 5
	movl	-28(%rbp), %ecx
	movl	-32(%rbp), %edx
	movl	-36(%rbp), %eax
	movl	%ecx, %r9d
	movl	%edx, %r8d
	movl	%eax, %edx
	leaq	.LC5(%rip), %rcx
	call	printf
	.loc 1 23 12
	movl	$0, %eax
	.loc 1 24 1
	addq	$80, %rsp
	popq	%rbp
	.cfi_restore 6
	.cfi_def_cfa 7, 8
	ret
	.cfi_endproc
.LFE13:
	.seh_endproc
	.globl	Elapsed_time
	.def	Elapsed_time;	.scl	2;	.type	32;	.endef
	.seh_proc	Elapsed_time
Elapsed_time:
.LFB14:
	.loc 1 26 1
	.cfi_startproc
	pushq	%rbp
	.seh_pushreg	%rbp
	.cfi_def_cfa_offset 16
	.cfi_offset 6, -16
	pushq	%rbx
	.seh_pushreg	%rbx
	.cfi_def_cfa_offset 24
	.cfi_offset 3, -24
	subq	$56, %rsp
	.seh_stackalloc	56
	.cfi_def_cfa_offset 80
	leaq	128(%rsp), %rbp
	.seh_setframe	%rbp, 128
	.cfi_def_cfa 6, -48
	.seh_endprologue
	movq	%rcx, -48(%rbp)
	movq	%rdx, -40(%rbp)
	movq	%r8, -32(%rbp)
	.loc 1 28 13
	movq	-40(%rbp), %rax
	movq	%rax, %rcx
	call	Segundos
	movl	%eax, %ebx
	.loc 1 28 26
	movq	-48(%rbp), %rcx
	call	Segundos
	.loc 1 28 11
	subl	%eax, %ebx
	movl	%ebx, %eax
	movl	%eax, -84(%rbp)
	.loc 1 29 21
	movl	-84(%rbp), %ecx
	movl	$-1851608123, %edx
	movl	%ecx, %eax
	imull	%edx
	leal	(%rdx,%rcx), %eax
	sarl	$11, %eax
	movl	%eax, %edx
	movl	%ecx, %eax
	sarl	$31, %eax
	subl	%eax, %edx
	.loc 1 29 14
	movq	-32(%rbp), %rax
	movl	%edx, (%rax)
	.loc 1 30 11
	movl	-84(%rbp), %ecx
	movl	$-1851608123, %edx
	movl	%ecx, %eax
	imull	%edx
	leal	(%rdx,%rcx), %eax
	sarl	$11, %eax
	movl	%eax, %edx
	movl	%ecx, %eax
	sarl	$31, %eax
	subl	%eax, %edx
	movl	%edx, %eax
	imull	$3600, %eax, %eax
	subl	%eax, %ecx
	movl	%ecx, %eax
	movl	%eax, -84(%rbp)
	.loc 1 31 20
	movl	-84(%rbp), %ecx
	movl	$-2004318071, %edx
	movl	%ecx, %eax
	imull	%edx
	leal	(%rdx,%rcx), %eax
	sarl	$5, %eax
	movl	%eax, %edx
	movl	%ecx, %eax
	sarl	$31, %eax
	subl	%eax, %edx
	.loc 1 31 13
	movq	-32(%rbp), %rax
	movl	%edx, 4(%rax)
	.loc 1 32 20
	movl	-84(%rbp), %ecx
	movl	$-2004318071, %edx
	movl	%ecx, %eax
	imull	%edx
	leal	(%rdx,%rcx), %eax
	sarl	$5, %eax
	movl	%eax, %edx
	movl	%ecx, %eax
	sarl	$31, %eax
	subl	%eax, %edx
	movl	%edx, %eax
	imull	$60, %eax, %eax
	subl	%eax, %ecx
	movl	%ecx, %eax
	.loc 1 32 13
	movq	-32(%rbp), %rdx
	movl	%eax, 8(%rdx)
	.loc 1 33 1
	nop
	addq	$56, %rsp
	popq	%rbx
	.cfi_restore 3
	popq	%rbp
	.cfi_restore 6
	.cfi_def_cfa 7, -40
	ret
	.cfi_endproc
.LFE14:
	.seh_endproc
	.globl	Segundos
	.def	Segundos;	.scl	2;	.type	32;	.endef
	.seh_proc	Segundos
Segundos:
.LFB15:
	.loc 1 35 1
	.cfi_startproc
	pushq	%rbp
	.seh_pushreg	%rbp
	.cfi_def_cfa_offset 16
	.cfi_offset 6, -16
	movq	%rsp, %rbp
	.seh_setframe	%rbp, 0
	.cfi_def_cfa_register 6
	.seh_endprologue
	movq	%rcx, 16(%rbp)
	.loc 1 36 18
	movq	16(%rbp), %rax
	movl	(%rax), %eax
	.loc 1 36 25
	imull	$60, %eax, %eax
	.loc 1 36 31
	movq	16(%rbp), %rdx
	movl	4(%rdx), %edx
	.loc 1 36 28
	addl	%edx, %eax
	.loc 1 36 14
	imull	$60, %eax, %eax
	.loc 1 36 40
	movq	16(%rbp), %rdx
	movl	8(%rdx), %edx
	.loc 1 36 38
	addl	%edx, %eax
	.loc 1 37 1
	popq	%rbp
	.cfi_restore 6
	.cfi_def_cfa 7, 8
	ret
	.cfi_endproc
.LFE15:
	.seh_endproc
.Letext0: